; Function Attrs: mustprogress nofree norecurse nosync nounwind memory(argmem: readwrite) uwtable
define noundef ptr @u_strcpy_77(ptr noundef returned writeonly %0, ptr noundef readonly captures(none) %1) local_unnamed_addr #5 {
  br label %3

3:                                                ; preds = %3, %2
  %.04 = phi ptr [ %1, %2 ], [ %4, %3 ]
  %.0 = phi ptr [ %0, %2 ], [ %6, %3 ]
  %4 = getelementptr inbounds nuw i8, ptr %.04, i64 2
  %5 = load i16, ptr %.04, align 2, !tbaa !3
  %6 = getelementptr inbounds nuw i8, ptr %.0, i64 2
  store i16 %5, ptr %.0, align 2, !tbaa !3
  %.not = icmp eq i16 %5, 0
  br i1 %.not, label %7, label %3, !llvm.loop !51

7:                                                ; preds = %3
  ret ptr %0
}